target datalayout = "e-m:e-p270:32:32-p271:32:32-p272:64:64-i64:64-i128:128-f80:128-n8:16:32:64-S128"
target triple = "x86_64-pc-linux-gnu"

; Function Attrs: nounwind uwtable
define internal i32 @have_md(ptr noundef %0) #0 {
  %2 = alloca ptr, align 8
  %3 = alloca i32, align 4
  %4 = alloca ptr, align 8
  %5 = alloca ptr, align 8
  store ptr %0, ptr %2, align 8, !tbaa !39
  call void @llvm.lifetime.start.p0(i64 4, ptr %3) #11
  store i32 0, ptr %3, align 4, !tbaa !4
  call void @llvm.lifetime.start.p0(i64 8, ptr %4) #11
  store ptr null, ptr %4, align 8, !tbaa !217
  %6 = load ptr, ptr %2, align 8, !tbaa !39
  %7 = call i32 @opt_md_silent(ptr noundef %6, ptr noundef %4)
  %8 = icmp ne i32 %7, 0
  br i1 %8, label %9, label %22

9:                                                ; preds = %1
  call void @llvm.lifetime.start.p0(i64 8, ptr %5) #11
  %10 = call ptr @EVP_MD_CTX_new()
  store ptr %10, ptr %5, align 8, !tbaa !169
  %11 = load ptr, ptr %5, align 8, !tbaa !169
  %12 = icmp ne ptr %11, null
  br i1 %12, label %13, label %19

13:                                               ; preds = %9
  %14 = load ptr, ptr %5, align 8, !tbaa !169
  %15 = load ptr, ptr %4, align 8, !tbaa !217
  %16 = call i32 @EVP_DigestInit(ptr noundef %14, ptr noundef %15)
  %17 = icmp sgt i32 %16, 0
  br i1 %17, label %18, label %19

18:                                               ; preds = %13
  store i32 1, ptr %3, align 4, !tbaa !4
  br label %19

19:                                               ; preds = %18, %13, %9
  %20 = load ptr, ptr %5, align 8, !tbaa !169
  call void @EVP_MD_CTX_free(ptr noundef %20)
  %21 = load ptr, ptr %4, align 8, !tbaa !217
  call void @EVP_MD_free(ptr noundef %21)
  call void @llvm.lifetime.end.p0(i64 8, ptr %5) #11
  br label %22

22:                                               ; preds = %19, %1
  %23 = load i32, ptr %3, align 4, !tbaa !4
  call void @llvm.lifetime.end.p0(i64 8, ptr %4) #11
  call void @llvm.lifetime.end.p0(i64 4, ptr %3) #11
  ret i32 %23
}